; Function Attrs: mustprogress uwtable
define dso_local noundef i32 @_ZNK21btUniformScalingShape36getNumPreferredPenetrationDirectionsEv(ptr nocapture noundef nonnull readonly align 8 dereferenceable(44) %this) unnamed_addr #0 align 2 {
entry:
  %m_childConvexShape = getelementptr inbounds i8, ptr %this, i64 32
  %0 = load ptr, ptr %m_childConvexShape, align 8
  %vtable = load ptr, ptr %0, align 8
  %vfn = getelementptr inbounds i8, ptr %vtable, i64 168
  %1 = load ptr, ptr %vfn, align 8
  %call = tail call noundef i32 %1(ptr noundef nonnull align 8 dereferenceable(32) %0)
  ret i32 %call
}